target datalayout = "e-m:e-p270:32:32-p271:32:32-p272:64:64-i64:64-i128:128-f80:128-n8:16:32:64-S128"
target triple = "x86_64-unknown-linux-gnu"

%class.cost_evaluator = type { ptr, %class.arith_util, i32, ptr }
%class.arith_util = type { ptr, ptr }

; Function Attrs: mustprogress uwtable
define hidden noundef float @_ZN14cost_evaluatorclEP4exprjPKf(ptr noundef nonnull align 8 dereferenceable(40) %this, ptr noundef %f, i32 noundef %num_args, ptr noundef %args) #4 align 2 {
entry:
  %this.addr = alloca ptr, align 8
  %f.addr = alloca ptr, align 8
  %num_args.addr = alloca i32, align 4
  %args.addr = alloca ptr, align 8
  store ptr %this, ptr %this.addr, align 8
  store ptr %f, ptr %f.addr, align 8
  store i32 %num_args, ptr %num_args.addr, align 4
  store ptr %args, ptr %args.addr, align 8
  %this1 = load ptr, ptr %this.addr, align 8
  %0 = load i32, ptr %num_args.addr, align 4
  %m_num_args = getelementptr inbounds %class.cost_evaluator, ptr %this1, i32 0, i32 2
  store i32 %0, ptr %m_num_args, align 8
  %1 = load ptr, ptr %args.addr, align 8
  %m_args = getelementptr inbounds %class.cost_evaluator, ptr %this1, i32 0, i32 3
  store ptr %1, ptr %m_args, align 8
  %2 = load ptr, ptr %f.addr, align 8
  %call = call noundef float @_ZNK14cost_evaluator4evalEP4expr(ptr noundef nonnull align 8 dereferenceable(40) %this1, ptr noundef %2)
  ret float %call
}