; Function Attrs: mustprogress uwtable
define hidden noundef float @_ZN14cost_evaluatorclEP4exprjPKf(ptr noundef nonnull align 8 dereferenceable(40) %this, ptr noundef %f, i32 noundef %num_args, ptr noundef %args) local_unnamed_addr #3 align 2 {
entry:
  %m_num_args = getelementptr inbounds i8, ptr %this, i64 24
  store i32 %num_args, ptr %m_num_args, align 8
  %m_args = getelementptr inbounds i8, ptr %this, i64 32
  store ptr %args, ptr %m_args, align 8
  %call = tail call noundef float @_ZNK14cost_evaluator4evalEP4expr(ptr noundef nonnull align 8 dereferenceable(40) %this, ptr noundef %f)
  ret float %call
}